target datalayout = "e-m:e-p270:32:32-p271:32:32-p272:64:64-i64:64-i128:128-f80:128-n8:16:32:64-S128"
target triple = "x86_64-unknown-linux-gnu"

%"class.zmq::mechanism_t" = type { ptr, %"struct.zmq::options_t", %"class.std::map", %"class.std::map", %"struct.zmq::blob_t", %"struct.zmq::blob_t" }
%"struct.zmq::options_t" = type { i32, i32, i64, i8, [256 x i8], i32, i32, i32, i32, i32, i32, i32, i32, i8, %"struct.zmq::atomic_value_t", i32, i32, i32, i32, i32, i32, i64, i32, i32, i8, i32, i8, i8, i8, i8, i8, %"class.std::__cxx11::basic_string", %"class.std::__cxx11::basic_string", %"class.std::__cxx11::basic_string", i32, i32, i32, i32, %"class.std::vector", %"class.std::set", %"class.std::set", %"class.std::set.6", i32, i32, %"class.std::__cxx11::basic_string", %"class.std::__cxx11::basic_string", %"class.std::__cxx11::basic_string", [32 x i8], [32 x i8], [32 x i8], %"class.std::__cxx11::basic_string", %"class.std::__cxx11::basic_string", i32, i32, i8, i32, i8, i32, i8, i16, i32, i32, i32, %"class.std::__cxx11::basic_string", i8, i8, i8, i32, i32, i8, i32, %"class.std::map", i32, %"class.std::__cxx11::basic_string", %"class.std::__cxx11::basic_string", %"class.std::__cxx11::basic_string", %"class.std::__cxx11::basic_string", i8, %"class.std::vector.21", i8, %"class.std::vector.21", i8, %"class.std::vector.21", i8, i32, i8, i32, i32, i32, i32, i32, i8, i32 }
%"struct.zmq::atomic_value_t" = type { %"struct.std::atomic" }
%"struct.std::atomic" = type { %"struct.std::__atomic_base" }
%"struct.std::__atomic_base" = type { i32 }
%"class.std::vector" = type { %"struct.std::_Vector_base" }
%"struct.std::_Vector_base" = type { %"struct.std::_Vector_base<zmq::tcp_address_mask_t, std::allocator<zmq::tcp_address_mask_t>>::_Vector_impl" }
%"struct.std::_Vector_base<zmq::tcp_address_mask_t, std::allocator<zmq::tcp_address_mask_t>>::_Vector_impl" = type { %"struct.std::_Vector_base<zmq::tcp_address_mask_t, std::allocator<zmq::tcp_address_mask_t>>::_Vector_impl_data" }
%"struct.std::_Vector_base<zmq::tcp_address_mask_t, std::allocator<zmq::tcp_address_mask_t>>::_Vector_impl_data" = type { ptr, ptr, ptr }
%"class.std::set" = type { %"class.std::_Rb_tree" }
%"class.std::_Rb_tree" = type { %"struct.std::_Rb_tree<unsigned int, unsigned int, std::_Identity<unsigned int>, std::less<unsigned int>>::_Rb_tree_impl" }
%"struct.std::_Rb_tree<unsigned int, unsigned int, std::_Identity<unsigned int>, std::less<unsigned int>>::_Rb_tree_impl" = type { %"struct.std::_Rb_tree_key_compare", %"struct.std::_Rb_tree_header" }
%"struct.std::_Rb_tree_key_compare" = type { %"struct.std::less" }
%"struct.std::less" = type { i8 }
%"struct.std::_Rb_tree_header" = type { %"struct.std::_Rb_tree_node_base", i64 }
%"struct.std::_Rb_tree_node_base" = type { i32, ptr, ptr, ptr }
%"class.std::set.6" = type { %"class.std::_Rb_tree.7" }
%"class.std::_Rb_tree.7" = type { %"struct.std::_Rb_tree<int, int, std::_Identity<int>, std::less<int>>::_Rb_tree_impl" }
%"struct.std::_Rb_tree<int, int, std::_Identity<int>, std::less<int>>::_Rb_tree_impl" = type { %"struct.std::_Rb_tree_key_compare.11", %"struct.std::_Rb_tree_header" }
%"struct.std::_Rb_tree_key_compare.11" = type { %"struct.std::less.12" }
%"struct.std::less.12" = type { i8 }
%"class.std::__cxx11::basic_string" = type { %"struct.std::__cxx11::basic_string<char>::_Alloc_hider", i64, %union.anon }
%"struct.std::__cxx11::basic_string<char>::_Alloc_hider" = type { ptr }
%union.anon = type { i64, [8 x i8] }
%"class.std::vector.21" = type { %"struct.std::_Vector_base.22" }
%"struct.std::_Vector_base.22" = type { %"struct.std::_Vector_base<unsigned char, std::allocator<unsigned char>>::_Vector_impl" }
%"struct.std::_Vector_base<unsigned char, std::allocator<unsigned char>>::_Vector_impl" = type { %"struct.std::_Vector_base<unsigned char, std::allocator<unsigned char>>::_Vector_impl_data" }
%"struct.std::_Vector_base<unsigned char, std::allocator<unsigned char>>::_Vector_impl_data" = type { ptr, ptr, ptr }
%"class.std::map" = type { %"class.std::_Rb_tree.14" }
%"class.std::_Rb_tree.14" = type { %"struct.std::_Rb_tree<std::__cxx11::basic_string<char>, std::pair<const std::__cxx11::basic_string<char>, std::__cxx11::basic_string<char>>, std::_Select1st<std::pair<const std::__cxx11::basic_string<char>, std::__cxx11::basic_string<char>>>, std::less<std::__cxx11::basic_string<char>>>::_Rb_tree_impl" }
%"struct.std::_Rb_tree<std::__cxx11::basic_string<char>, std::pair<const std::__cxx11::basic_string<char>, std::__cxx11::basic_string<char>>, std::_Select1st<std::pair<const std::__cxx11::basic_string<char>, std::__cxx11::basic_string<char>>>, std::less<std::__cxx11::basic_string<char>>>::_Rb_tree_impl" = type { %"struct.std::_Rb_tree_key_compare.18", %"struct.std::_Rb_tree_header" }
%"struct.std::_Rb_tree_key_compare.18" = type { %"struct.std::less.19" }
%"struct.std::less.19" = type { i8 }
%"struct.zmq::blob_t" = type <{ ptr, i64, i8, [7 x i8] }>
%"class.zmq::zap_client_common_handshake_t" = type { %"class.zmq::zap_client_t.base", i32, i32, %"class.zmq::mechanism_base_t" }
%"class.zmq::zap_client_t.base" = type { ptr, %"class.std::__cxx11::basic_string", %"class.std::__cxx11::basic_string" }
%"class.zmq::mechanism_base_t" = type { %"class.zmq::mechanism_t", ptr }

@stderr = external global ptr, align 8
@.str.2 = private unnamed_addr constant [112 x i8] c"generated/home/dtcxzyw/WorkSpace/Projects/compilers/llvm-opt-benchmark/bench/libzmq/libzmq/src/plain_server.cpp\00", align 1
@.str.3 = private unnamed_addr constant [12 x i8] c"%s (%s:%d)\0A\00", align 1

; Function Attrs: mustprogress uwtable
define noundef i32 @_ZN3zmq14plain_server_t25process_handshake_commandEPNS_5msg_tE(ptr noundef nonnull align 8 dereferenceable(1576) %this, ptr noundef %msg_) unnamed_addr #0 align 2 {
entry:
  %this.addr = alloca ptr, align 8
  %msg_.addr = alloca ptr, align 8
  %rc = alloca i32, align 4
  %errstr = alloca ptr, align 8
  %errstr21 = alloca ptr, align 8
  store ptr %this, ptr %this.addr, align 8
  store ptr %msg_, ptr %msg_.addr, align 8
  %this1 = load ptr, ptr %this.addr, align 8
  store i32 0, ptr %rc, align 4
  %state = getelementptr inbounds %"class.zmq::zap_client_common_handshake_t", ptr %this1, i32 0, i32 1
  %0 = load i32, ptr %state, align 8
  switch i32 %0, label %sw.default [
    i32 0, label %sw.bb
    i32 2, label %sw.bb2
  ]

sw.bb:                                            ; preds = %entry
  %1 = load ptr, ptr %msg_.addr, align 8
  %call = call noundef i32 @_ZN3zmq14plain_server_t13process_helloEPNS_5msg_tE(ptr noundef nonnull align 8 dereferenceable(1576) %this1, ptr noundef %1)
  store i32 %call, ptr %rc, align 4
  br label %sw.epilog

sw.bb2:                                           ; preds = %entry
  %2 = load ptr, ptr %msg_.addr, align 8
  %call3 = call noundef i32 @_ZN3zmq14plain_server_t16process_initiateEPNS_5msg_tE(ptr noundef nonnull align 8 dereferenceable(1576) %this1, ptr noundef %2)
  store i32 %call3, ptr %rc, align 4
  br label %sw.epilog

sw.default:                                       ; preds = %entry
  %add.ptr = getelementptr inbounds i8, ptr %this1, i64 80
  %session = getelementptr inbounds %"class.zmq::mechanism_base_t", ptr %add.ptr, i32 0, i32 1
  %3 = load ptr, ptr %session, align 8
  %call4 = call noundef ptr @_ZNK3zmq14session_base_t10get_socketEv(ptr noundef nonnull align 8 dereferenceable(1624) %3)
  %add.ptr5 = getelementptr inbounds i8, ptr %this1, i64 80
  %session6 = getelementptr inbounds %"class.zmq::mechanism_base_t", ptr %add.ptr5, i32 0, i32 1
  %4 = load ptr, ptr %session6, align 8
  %call7 = call noundef nonnull align 8 dereferenceable(68) ptr @_ZNK3zmq14session_base_t12get_endpointEv(ptr noundef nonnull align 8 dereferenceable(1624) %4)
  call void @_ZN3zmq13socket_base_t31event_handshake_failed_protocolERKNS_19endpoint_uri_pair_tEi(ptr noundef nonnull align 8 dereferenceable(1825) %call4, ptr noundef nonnull align 8 dereferenceable(68) %call7, i32 noundef 268435456)
  %call8 = call ptr @__errno_location() #13
  store i32 71, ptr %call8, align 4
  store i32 -1, ptr %rc, align 4
  br label %sw.epilog

sw.epilog:                                        ; preds = %sw.default, %sw.bb2, %sw.bb
  %5 = load i32, ptr %rc, align 4
  %cmp = icmp eq i32 %5, 0
  br i1 %cmp, label %if.then, label %if.end28

if.then:                                          ; preds = %sw.epilog
  %6 = load ptr, ptr %msg_.addr, align 8
  %call9 = call noundef i32 @_ZN3zmq5msg_t5closeEv(ptr noundef nonnull align 8 dereferenceable(64) %6)
  store i32 %call9, ptr %rc, align 4
  br label %do.body

do.body:                                          ; preds = %if.then
  %7 = load i32, ptr %rc, align 4
  %cmp10 = icmp eq i32 %7, 0
  %lnot = xor i1 %cmp10, true
  br i1 %lnot, label %if.then11, label %if.end

if.then11:                                        ; preds = %do.body
  %call12 = call ptr @__errno_location() #13
  %8 = load i32, ptr %call12, align 4
  %call13 = call ptr @strerror(i32 noundef %8) #11
  store ptr %call13, ptr %errstr, align 8
  %9 = load ptr, ptr @stderr, align 8
  %10 = load ptr, ptr %errstr, align 8
  %call14 = call i32 (ptr, ptr, ...) @fprintf(ptr noundef %9, ptr noundef @.str.3, ptr noundef %10, ptr noundef @.str.2, i32 noundef 79)
  %11 = load ptr, ptr @stderr, align 8
  %call15 = call i32 @fflush(ptr noundef %11)
  %12 = load ptr, ptr %errstr, align 8
  call void @_ZN3zmq9zmq_abortEPKc(ptr noundef %12)
  br label %if.end

if.end:                                           ; preds = %if.then11, %do.body
  br label %do.end

do.end:                                           ; preds = %if.end
  %13 = load ptr, ptr %msg_.addr, align 8
  %call16 = call noundef i32 @_ZN3zmq5msg_t4initEv(ptr noundef nonnull align 8 dereferenceable(64) %13)
  store i32 %call16, ptr %rc, align 4
  br label %do.body17

do.body17:                                        ; preds = %do.end
  %14 = load i32, ptr %rc, align 4
  %cmp18 = icmp eq i32 %14, 0
  %lnot19 = xor i1 %cmp18, true
  br i1 %lnot19, label %if.then20, label %if.end26

if.then20:                                        ; preds = %do.body17
  %call22 = call ptr @__errno_location() #13
  %15 = load i32, ptr %call22, align 4
  %call23 = call ptr @strerror(i32 noundef %15) #11
  store ptr %call23, ptr %errstr21, align 8
  %16 = load ptr, ptr @stderr, align 8
  %17 = load ptr, ptr %errstr21, align 8
  %call24 = call i32 (ptr, ptr, ...) @fprintf(ptr noundef %16, ptr noundef @.str.3, ptr noundef %17, ptr noundef @.str.2, i32 noundef 81)
  %18 = load ptr, ptr @stderr, align 8
  %call25 = call i32 @fflush(ptr noundef %18)
  %19 = load ptr, ptr %errstr21, align 8
  call void @_ZN3zmq9zmq_abortEPKc(ptr noundef %19)
  br label %if.end26

if.end26:                                         ; preds = %if.then20, %do.body17
  br label %do.end27

do.end27:                                         ; preds = %if.end26
  br label %if.end28

if.end28:                                         ; preds = %do.end27, %sw.epilog
  %20 = load i32, ptr %rc, align 4
  ret i32 %20
}