; Function Attrs: mustprogress uwtable
define noundef i32 @_ZN3zmq14plain_server_t25process_handshake_commandEPNS_5msg_tE(ptr noundef nonnull align 8 dereferenceable(1576) %this, ptr noundef %msg_) unnamed_addr #0 align 2 {
entry:
  %state = getelementptr inbounds i8, ptr %this, i64 72
  %0 = load i32, ptr %state, align 8
  switch i32 %0, label %sw.epilog.thread [
    i32 0, label %sw.bb
    i32 2, label %sw.bb2
  ]

sw.bb:                                            ; preds = %entry
  %call = tail call noundef i32 @_ZN3zmq14plain_server_t13process_helloEPNS_5msg_tE(ptr noundef nonnull align 8 dereferenceable(1576) %this, ptr noundef %msg_), !range !4
  br label %sw.epilog

sw.bb2:                                           ; preds = %entry
  %call3 = tail call noundef i32 @_ZN3zmq14plain_server_t16process_initiateEPNS_5msg_tE(ptr noundef nonnull align 8 dereferenceable(1576) %this, ptr noundef %msg_)
  br label %sw.epilog

sw.epilog.thread:                                 ; preds = %entry
  %session = getelementptr inbounds i8, ptr %this, i64 1568
  %1 = load ptr, ptr %session, align 8
  %call4 = tail call noundef ptr @_ZNK3zmq14session_base_t10get_socketEv(ptr noundef nonnull align 8 dereferenceable(1624) %1)
  %2 = load ptr, ptr %session, align 8
  %call7 = tail call noundef nonnull align 8 dereferenceable(68) ptr @_ZNK3zmq14session_base_t12get_endpointEv(ptr noundef nonnull align 8 dereferenceable(1624) %2)
  tail call void @_ZN3zmq13socket_base_t31event_handshake_failed_protocolERKNS_19endpoint_uri_pair_tEi(ptr noundef nonnull align 8 dereferenceable(1825) %call4, ptr noundef nonnull align 8 dereferenceable(68) %call7, i32 noundef 268435456)
  %call8 = tail call ptr @__errno_location() #15
  store i32 71, ptr %call8, align 4
  br label %if.end28

sw.epilog:                                        ; preds = %sw.bb2, %sw.bb
  %rc.0 = phi i32 [ %call3, %sw.bb2 ], [ %call, %sw.bb ]
  %cmp = icmp eq i32 %rc.0, 0
  br i1 %cmp, label %if.then, label %if.end28

if.then:                                          ; preds = %sw.epilog
  %call9 = tail call noundef i32 @_ZN3zmq5msg_t5closeEv(ptr noundef nonnull align 8 dereferenceable(64) %msg_)
  %cmp10.not = icmp eq i32 %call9, 0
  br i1 %cmp10.not, label %do.end, label %if.then11

if.then11:                                        ; preds = %if.then
  %call12 = tail call ptr @__errno_location() #15
  %3 = load i32, ptr %call12, align 4
  %call13 = tail call ptr @strerror(i32 noundef %3) #13
  %4 = load ptr, ptr @stderr, align 8
  %call14 = tail call i32 (ptr, ptr, ...) @fprintf(ptr noundef %4, ptr noundef nonnull @.str.3, ptr noundef %call13, ptr noundef nonnull @.str.2, i32 noundef 79) #12
  %5 = load ptr, ptr @stderr, align 8
  %call15 = tail call i32 @fflush(ptr noundef %5)
  tail call void @_ZN3zmq9zmq_abortEPKc(ptr noundef %call13)
  br label %do.end

do.end:                                           ; preds = %if.then, %if.then11
  %call16 = tail call noundef i32 @_ZN3zmq5msg_t4initEv(ptr noundef nonnull align 8 dereferenceable(64) %msg_)
  %cmp18.not = icmp eq i32 %call16, 0
  br i1 %cmp18.not, label %if.end28, label %if.then20

if.then20:                                        ; preds = %do.end
  %call22 = tail call ptr @__errno_location() #15
  %6 = load i32, ptr %call22, align 4
  %call23 = tail call ptr @strerror(i32 noundef %6) #13
  %7 = load ptr, ptr @stderr, align 8
  %call24 = tail call i32 (ptr, ptr, ...) @fprintf(ptr noundef %7, ptr noundef nonnull @.str.3, ptr noundef %call23, ptr noundef nonnull @.str.2, i32 noundef 81) #12
  %8 = load ptr, ptr @stderr, align 8
  %call25 = tail call i32 @fflush(ptr noundef %8)
  tail call void @_ZN3zmq9zmq_abortEPKc(ptr noundef %call23)
  br label %if.end28

if.end28:                                         ; preds = %sw.epilog.thread, %if.then20, %do.end, %sw.epilog
  %rc.1 = phi i32 [ %call16, %if.then20 ], [ 0, %do.end ], [ %rc.0, %sw.epilog ], [ -1, %sw.epilog.thread ]
  ret i32 %rc.1
}